target datalayout = "e-m:e-p270:32:32-p271:32:32-p272:64:64-i64:64-i128:128-f80:128-n8:16:32:64-S128"
target triple = "x86_64-pc-linux-gnu"

%struct.GenerationContext = type { %struct.MemoryContextData, i32, i32, i32, i32, ptr, ptr, %struct.dlist_head }
%struct.MemoryContextData = type { i32, i8, i8, i64, ptr, ptr, ptr, ptr, ptr, ptr, ptr, ptr }
%struct.dlist_head = type { %struct.dlist_node }
%struct.dlist_node = type { ptr, ptr }
%struct.GenerationBlock = type { %struct.dlist_node, ptr, i64, i32, i32, ptr, ptr }
%struct.MemoryChunk = type { i64 }

; Function Attrs: inlinehint nounwind uwtable
define internal ptr @MemoryChunkGetBlock(ptr noundef %0) #5 {
  %2 = alloca ptr, align 8
  store ptr %0, ptr %2, align 8
  %3 = load ptr, ptr %2, align 8
  %4 = load ptr, ptr %2, align 8
  %5 = getelementptr inbounds nuw %struct.MemoryChunk, ptr %4, i32 0, i32 0
  %6 = load i64, ptr %5, align 8
  %7 = lshr i64 %6, 34
  %8 = and i64 %7, 1073741822
  %9 = sub i64 0, %8
  %10 = getelementptr inbounds i8, ptr %3, i64 %9
  ret ptr %10
}

; Function Attrs: inlinehint nounwind uwtable
define internal zeroext i1 @MemoryChunkIsExternal(ptr noundef %0) #5 {
  %2 = alloca ptr, align 8
  store ptr %0, ptr %2, align 8
  %3 = load ptr, ptr %2, align 8
  %4 = getelementptr inbounds nuw %struct.MemoryChunk, ptr %3, i32 0, i32 0
  %5 = load i64, ptr %4, align 8
  %6 = and i64 %5, 16
  %7 = icmp ne i64 %6, 0
  ret i1 %7
}

; Function Attrs: nounwind uwtable
define dso_local ptr @GenerationGetChunkContext(ptr noundef %0) #0 {
  %2 = alloca ptr, align 8
  %3 = alloca ptr, align 8
  %4 = alloca ptr, align 8
  store ptr %0, ptr %2, align 8
  call void @llvm.lifetime.start.p0(i64 8, ptr %3) #12
  %5 = load ptr, ptr %2, align 8
  %6 = getelementptr inbounds i8, ptr %5, i64 -8
  store ptr %6, ptr %3, align 8
  call void @llvm.lifetime.start.p0(i64 8, ptr %4) #12
  br label %7

7:                                                ; preds = %1
  br label %8

8:                                                ; preds = %7
  br label %9

9:                                                ; preds = %8
  %10 = load ptr, ptr %3, align 8
  %11 = call zeroext i1 @MemoryChunkIsExternal(ptr noundef %10)
  br i1 %11, label %12, label %15

12:                                               ; preds = %9
  %13 = load ptr, ptr %3, align 8
  %14 = getelementptr inbounds i8, ptr %13, i64 -56
  store ptr %14, ptr %4, align 8
  br label %18

15:                                               ; preds = %9
  %16 = load ptr, ptr %3, align 8
  %17 = call ptr @MemoryChunkGetBlock(ptr noundef %16)
  store ptr %17, ptr %4, align 8
  br label %18

18:                                               ; preds = %15, %12
  br label %19

19:                                               ; preds = %18
  br label %20

20:                                               ; preds = %19
  br label %21

21:                                               ; preds = %20
  %22 = load ptr, ptr %4, align 8
  %23 = getelementptr inbounds nuw %struct.GenerationBlock, ptr %22, i32 0, i32 1
  %24 = load ptr, ptr %23, align 8
  %25 = getelementptr inbounds nuw %struct.GenerationContext, ptr %24, i32 0, i32 0
  call void @llvm.lifetime.end.p0(i64 8, ptr %4) #12
  call void @llvm.lifetime.end.p0(i64 8, ptr %3) #12
  ret ptr %25
}